target datalayout = "e-m:e-p270:32:32-p271:32:32-p272:64:64-i64:64-i128:128-f80:128-n8:16:32:64-S128"
target triple = "x86_64-pc-linux-gnu"

%struct.cf_callback_data_t = type { ptr, ptr }
%struct._GList = type { ptr, ptr, ptr }
%struct.merge_progress_callback_t = type { ptr, ptr }
%struct._callback_data_t = type { ptr, i64, ptr, ptr, i8 }

@cf_callbacks = internal global ptr null, align 8
@.str.13 = private unnamed_addr constant [10 x i8] c"wireshark\00", align 1
@.str.14 = private unnamed_addr constant [10 x i8] c"Wireshark\00", align 1

; Function Attrs: null_pointer_is_valid sspstrong uwtable
define internal void @cf_callback_invoke(i32 noundef %0, ptr noundef %1) #1 {
  %3 = alloca i32, align 4
  %4 = alloca ptr, align 8
  %5 = alloca ptr, align 8
  %6 = alloca ptr, align 8
  store i32 %0, ptr %3, align 4
  store ptr %1, ptr %4, align 8
  call void @llvm.lifetime.start.p0(i64 8, ptr %5) #19
  call void @llvm.lifetime.start.p0(i64 8, ptr %6) #19
  %7 = load ptr, ptr @cf_callbacks, align 8
  store ptr %7, ptr %6, align 8
  br label %8

8:                                                ; preds = %2
  br label %9

9:                                                ; preds = %8
  br label %10

10:                                               ; preds = %9
  br label %11

11:                                               ; preds = %33, %10
  %12 = load ptr, ptr %6, align 8
  %13 = icmp ne ptr %12, null
  br i1 %13, label %14, label %35

14:                                               ; preds = %11
  %15 = load ptr, ptr %6, align 8
  %16 = getelementptr inbounds nuw %struct._GList, ptr %15, i32 0, i32 0
  %17 = load ptr, ptr %16, align 8
  store ptr %17, ptr %5, align 8
  %18 = load ptr, ptr %5, align 8
  %19 = getelementptr inbounds nuw %struct.cf_callback_data_t, ptr %18, i32 0, i32 0
  %20 = load ptr, ptr %19, align 8
  %21 = load i32, ptr %3, align 4
  %22 = load ptr, ptr %4, align 8
  %23 = load ptr, ptr %5, align 8
  %24 = getelementptr inbounds nuw %struct.cf_callback_data_t, ptr %23, i32 0, i32 1
  %25 = load ptr, ptr %24, align 8
  call void %20(i32 noundef %21, ptr noundef %22, ptr noundef %25)
  %26 = load ptr, ptr %6, align 8
  %27 = icmp ne ptr %26, null
  br i1 %27, label %28, label %32

28:                                               ; preds = %14
  %29 = load ptr, ptr %6, align 8
  %30 = getelementptr inbounds nuw %struct._GList, ptr %29, i32 0, i32 1
  %31 = load ptr, ptr %30, align 8
  br label %33

32:                                               ; preds = %14
  br label %33

33:                                               ; preds = %32, %28
  %34 = phi ptr [ %31, %28 ], [ null, %32 ]
  store ptr %34, ptr %6, align 8
  br label %11, !llvm.loop !10

35:                                               ; preds = %11
  call void @llvm.lifetime.end.p0(i64 8, ptr %6) #19
  call void @llvm.lifetime.end.p0(i64 8, ptr %5) #19
  ret void
}

; Function Attrs: null_pointer_is_valid sspstrong uwtable
define hidden i32 @cf_merge_files_to_tempfile(ptr noundef %0, ptr noundef %1, ptr noundef %2, i32 noundef %3, ptr noundef %4, i32 noundef %5, i1 noundef zeroext %6) #1 {
  %8 = alloca i32, align 4
  %9 = alloca ptr, align 8
  %10 = alloca ptr, align 8
  %11 = alloca ptr, align 8
  %12 = alloca i32, align 4
  %13 = alloca ptr, align 8
  %14 = alloca i32, align 4
  %15 = alloca i8, align 1
  %16 = alloca i8, align 1
  %17 = alloca %struct.merge_progress_callback_t, align 8
  %18 = alloca ptr, align 8
  %19 = alloca i64, align 8
  %20 = alloca i64, align 8
  %21 = alloca ptr, align 8
  %22 = alloca ptr, align 8
  %23 = alloca i32, align 4
  store ptr %0, ptr %9, align 8
  store ptr %1, ptr %10, align 8
  store ptr %2, ptr %11, align 8
  store i32 %3, ptr %12, align 4
  store ptr %4, ptr %13, align 8
  store i32 %5, ptr %14, align 4
  %24 = zext i1 %6 to i8
  store i8 %24, ptr %15, align 1
  call void @llvm.lifetime.start.p0(i64 1, ptr %16) #19
  call void @llvm.lifetime.start.p0(i64 16, ptr %17) #19
  call void @llvm.lifetime.start.p0(i64 8, ptr %18) #19
  call void @llvm.lifetime.start.p0(i64 8, ptr %19) #19
  store i64 1, ptr %19, align 8
  call void @llvm.lifetime.start.p0(i64 8, ptr %20) #19
  store i64 40, ptr %20, align 8
  call void @llvm.lifetime.start.p0(i64 8, ptr %21) #19
  %25 = load i64, ptr %20, align 8
  %26 = icmp eq i64 %25, 1
  br i1 %26, label %27, label %30

27:                                               ; preds = %7
  %28 = load i64, ptr %19, align 8
  %29 = call noalias ptr @g_malloc0(i64 noundef %28) #20
  store ptr %29, ptr %21, align 8
  br label %51

30:                                               ; preds = %7
  %31 = load i64, ptr %19, align 8
  %32 = call i1 @llvm.is.constant.i64(i64 %31)
  br i1 %32, label %33, label %46

33:                                               ; preds = %30
  %34 = load i64, ptr %20, align 8
  %35 = icmp eq i64 %34, 0
  br i1 %35, label %41, label %36

36:                                               ; preds = %33
  %37 = load i64, ptr %19, align 8
  %38 = load i64, ptr %20, align 8
  %39 = udiv i64 -1, %38
  %40 = icmp ule i64 %37, %39
  br i1 %40, label %41, label %46

41:                                               ; preds = %36, %33
  %42 = load i64, ptr %19, align 8
  %43 = load i64, ptr %20, align 8
  %44 = mul i64 %42, %43
  %45 = call noalias ptr @g_malloc0(i64 noundef %44) #20
  store ptr %45, ptr %21, align 8
  br label %50

46:                                               ; preds = %36, %30
  %47 = load i64, ptr %19, align 8
  %48 = load i64, ptr %20, align 8
  %49 = call noalias ptr @g_malloc0_n(i64 noundef %47, i64 noundef %48) #21
  store ptr %49, ptr %21, align 8
  br label %50

50:                                               ; preds = %46, %41
  br label %51

51:                                               ; preds = %50, %27
  %52 = load ptr, ptr %21, align 8
  store ptr %52, ptr %22, align 8
  call void @llvm.lifetime.end.p0(i64 8, ptr %21) #19
  call void @llvm.lifetime.end.p0(i64 8, ptr %20) #19
  call void @llvm.lifetime.end.p0(i64 8, ptr %19) #19
  %53 = load ptr, ptr %22, align 8
  store ptr %53, ptr %18, align 8
  %54 = load ptr, ptr %9, align 8
  %55 = load ptr, ptr %18, align 8
  %56 = getelementptr inbounds nuw %struct._callback_data_t, ptr %55, i32 0, i32 0
  store ptr %54, ptr %56, align 8
  %57 = getelementptr inbounds nuw %struct.merge_progress_callback_t, ptr %17, i32 0, i32 0
  store ptr @merge_callback, ptr %57, align 8
  %58 = load ptr, ptr %18, align 8
  %59 = getelementptr inbounds nuw %struct.merge_progress_callback_t, ptr %17, i32 0, i32 1
  store ptr %58, ptr %59, align 8
  call void @cf_callback_invoke(i32 noundef 11, ptr noundef null)
  %60 = load ptr, ptr %10, align 8
  %61 = load ptr, ptr %11, align 8
  %62 = load i32, ptr %14, align 4
  %63 = load ptr, ptr %13, align 8
  %64 = load i32, ptr %12, align 4
  %65 = load i8, ptr %15, align 1, !range !8, !noundef !9
  %66 = trunc i8 %65 to i1
  %67 = call zeroext i1 @merge_files_to_tempfile(ptr noundef %60, ptr noundef %61, ptr noundef @.str.13, i32 noundef %62, ptr noundef %63, i32 noundef %64, i1 noundef zeroext %66, i32 noundef 1, i32 noundef 0, ptr noundef @.str.14, ptr noundef %17)
  %68 = zext i1 %67 to i8
  store i8 %68, ptr %16, align 1
  %69 = getelementptr inbounds nuw %struct.merge_progress_callback_t, ptr %17, i32 0, i32 1
  %70 = load ptr, ptr %69, align 8
  call void @g_free(ptr noundef %70)
  call void @cf_callback_invoke(i32 noundef 12, ptr noundef null)
  %71 = load i8, ptr %16, align 1, !range !8, !noundef !9
  %72 = trunc i8 %71 to i1
  br i1 %72, label %74, label %73

73:                                               ; preds = %51
  store i32 1, ptr %8, align 4
  store i32 1, ptr %23, align 4
  br label %75

74:                                               ; preds = %51
  store i32 0, ptr %8, align 4
  store i32 1, ptr %23, align 4
  br label %75

75:                                               ; preds = %74, %73
  call void @llvm.lifetime.end.p0(i64 8, ptr %18) #19
  call void @llvm.lifetime.end.p0(i64 16, ptr %17) #19
  call void @llvm.lifetime.end.p0(i64 1, ptr %16) #19
  %76 = load i32, ptr %8, align 4
  ret i32 %76
}