; Function Attrs: null_pointer_is_valid sspstrong uwtable
define hidden range(i32 0, 2) i32 @cf_merge_files_to_tempfile(ptr noundef %0, ptr noundef %1, ptr noundef %2, i32 noundef %3, ptr noundef %4, i32 noundef %5, i1 noundef zeroext %6) local_unnamed_addr #1 {
  %8 = alloca %struct.merge_progress_callback_t, align 8
  call void @llvm.lifetime.start.p0(i64 16, ptr nonnull %8) #23
  %9 = tail call noalias dereferenceable_or_null(40) ptr @g_malloc0(i64 noundef 40) #21
  store ptr %0, ptr %9, align 8
  store ptr @merge_callback, ptr %8, align 8
  %10 = getelementptr inbounds nuw i8, ptr %8, i64 8
  store ptr %9, ptr %10, align 8
  %.07.i = load ptr, ptr @cf_callbacks, align 8
  %.not8.i = icmp eq ptr %.07.i, null
  br i1 %.not8.i, label %cf_callback_invoke.exit, label %.lr.ph.i

.lr.ph.i:                                         ; preds = %7, %.lr.ph.i
  %.09.i = phi ptr [ %.0.i, %.lr.ph.i ], [ %.07.i, %7 ]
  %11 = load ptr, ptr %.09.i, align 8
  %12 = load ptr, ptr %11, align 8
  %13 = getelementptr inbounds nuw i8, ptr %11, i64 8
  %14 = load ptr, ptr %13, align 8
  tail call void %12(i32 noundef 11, ptr noundef null, ptr noundef %14)
  %15 = getelementptr inbounds nuw i8, ptr %.09.i, i64 8
  %.0.i = load ptr, ptr %15, align 8
  %.not.i = icmp eq ptr %.0.i, null
  br i1 %.not.i, label %cf_callback_invoke.exit, label %.lr.ph.i, !llvm.loop !8

cf_callback_invoke.exit:                          ; preds = %.lr.ph.i, %7
  %16 = call zeroext i1 @merge_files_to_tempfile(ptr noundef %1, ptr noundef %2, ptr noundef nonnull @.str.13, i32 noundef %5, ptr noundef %4, i32 noundef %3, i1 noundef zeroext %6, i32 noundef 1, i32 noundef 0, ptr noundef nonnull @.str.14, ptr noundef nonnull %8)
  %17 = load ptr, ptr %10, align 8
  call void @g_free(ptr noundef %17)
  %.07.i23 = load ptr, ptr @cf_callbacks, align 8
  %.not8.i24 = icmp eq ptr %.07.i23, null
  br i1 %.not8.i24, label %cf_callback_invoke.exit29, label %.lr.ph.i25

.lr.ph.i25:                                       ; preds = %cf_callback_invoke.exit, %.lr.ph.i25
  %.09.i26 = phi ptr [ %.0.i27, %.lr.ph.i25 ], [ %.07.i23, %cf_callback_invoke.exit ]
  %18 = load ptr, ptr %.09.i26, align 8
  %19 = load ptr, ptr %18, align 8
  %20 = getelementptr inbounds nuw i8, ptr %18, i64 8
  %21 = load ptr, ptr %20, align 8
  call void %19(i32 noundef 12, ptr noundef null, ptr noundef %21)
  %22 = getelementptr inbounds nuw i8, ptr %.09.i26, i64 8
  %.0.i27 = load ptr, ptr %22, align 8
  %.not.i28 = icmp eq ptr %.0.i27, null
  br i1 %.not.i28, label %cf_callback_invoke.exit29, label %.lr.ph.i25, !llvm.loop !8

cf_callback_invoke.exit29:                        ; preds = %.lr.ph.i25, %cf_callback_invoke.exit
  %not. = xor i1 %16, true
  %.0 = zext i1 %not. to i32
  call void @llvm.lifetime.end.p0(i64 16, ptr nonnull %8) #23
  ret i32 %.0
}